Open Watcom Linker Version 2.0 beta Sep 21 2015 09:27:06 (32-bit)
Copyright (c) 2002-2015 The Open Watcom Contributors. All Rights Reserved.
Portions Copyright (c) 1985-2002 Sybase, Inc. All Rights Reserved.
Created on:       15/10/03 13:35:04
Executable Image: maptest.exe
creating a DOS executable


                        +------------+
                        |   Groups   |
                        +------------+

Group                           Address              Size
=====                           =======              ====

DGROUP                          132d:0000            0000f130



                        +--------------+
                        |   Segments   |
                        +--------------+

Segment                Class          Group          Address         Size
=======                =====          =====          =======         ====

maptest_TEXT           CODE           AUTO           0000:0000       000001a5
mapread_TEXT           CODE           AUTO           0000:01b0       00000872
jsmn_TEXT              CODE           AUTO           0000:0a30       00000919
16_in_TEXT             CODE           AUTO           0000:1350       00001e80
16_mm_TEXT             CODE           AUTO           0000:31d0       00003308
wcpu_TEXT              CODE           AUTO           0000:64e0       00000058
16_head_TEXT           CODE           AUTO           0000:6540       00000405
16_ca_TEXT             CODE           AUTO           0000:6950       000003fd
kitten_TEXT            CODE           AUTO           0000:6d50       0000080a
16_hc_TEXT             CODE           AUTO           0000:7560       0000158b
timer_TEXT             CODE           AUTO           0000:8af0       00000209
_TEXT                  CODE           AUTO           08d0:0000       00007bbb
bitmap_TEXT            CODE           AUTO           08d0:7bc0       000005c9
modex16_TEXT           CODE           AUTO           08d0:8190       00002180
16text_TEXT            CODE           AUTO           08d0:a310       0000010d
16_in13_DATA           FAR_DATA       AUTO           1312:0000       000001a4
FAR_DATA               FAR_DATA       AUTO           132c:0004       00000000
_NULL                  BEGDATA        DGROUP         132d:0000       00000020
_AFTERNULL             BEGDATA        DGROUP         132f:0000       00000002
CONST                  DATA           DGROUP         132f:0002       00000076
CONST2                 DATA           DGROUP         1336:0008       00000102
_DATA                  DATA           DGROUP         1347:0000       000005b9
XIB                    DATA           DGROUP         13a2:000a       00000000
XI                     DATA           DGROUP         13a2:000a       00000036
XIE                    DATA           DGROUP         13a6:0000       00000000
YIB                    DATA           DGROUP         13a6:0000       00000000
YI                     DATA           DGROUP         13a6:0000       00000018
YIE                    DATA           DGROUP         13a7:0008       00000000
STRINGS                DATA           DGROUP         13a7:0008       00000000
DATA                   DATA           DGROUP         13a7:0008       00000000
_emu_init_start        EMU            DGROUP         13a7:0008       00000000
_emu_init_end          EMU            DGROUP         13a7:0008       00000000
_BSS                   BSS            DGROUP         13a8:0000       00000eb2
STACK                  STACK          DGROUP         1494:0000       0000dac0


                        +----------------+
                        |   Memory Map   |
                        +----------------+

* = unreferenced symbol
+ = symbol only referenced locally

Address        Symbol
=======        ======

Module: maptest.o(/dos/z/16/src/maptest.c)
0000:0092      main_
Module: mapread.o(/dos/z/16/src/lib/mapread.c)
0000:024c+     jsoneq_
0000:02f0+     dump_
0000:07ec      loadmap_
Module: jsmn.o(/dos/z/16/src/lib/jsmn/jsmn.c)
0000:0e02      jsmn_parse_
0000:12fe      jsmn_init_
Module: 16_in.o(/dos/z/16/src/lib/16_in.c)
132d:07de+     _inpu
0000:1490+     INL_KeyService_
0000:172a+     Mouse_
0000:1782+     IN_GetJoyAbs_
0000:1b2c+     IN_GetJoyButtonsDB_
0000:1db2+     IN_SetupJoy_
0000:1f74*     IN_Startup_
0000:207a*     IN_Default_
0000:21de*     IN_Shutdown_
0000:225e*     IN_SetKeyHook_
0000:2280+     IN_ClearKeysDown_
0000:2360*     IN_ReadCursor_
0000:247c*     IN_ReadControl_
0000:2cb4*     IN_SetControlType_
0000:2d02*     IN_GetScanName_
0000:2d8a*     IN_WaitForKey_
0000:2dc0*     IN_WaitForASCII_
0000:2df6+     IN_AckBack_
0000:2ede*     IN_Ack_
0000:2f80+     IN_IsUserInput_
0000:3026*     IN_UserInput_
0000:306a*     IN_KeyDown_
0000:30b2+     IN_ClearKey_
0000:312a*     IN_qb_
Module: 16_mm.o(/dos/z/16/src/lib/16_mm.c)
132d:0940+     _beforesort
132d:0944+     _aftersort
132d:0948+     _XMSaddr
0000:3bb4+     MML_CheckForEMS_
0000:3c10+     MML_SetupEMS_
0000:3dc8+     MML_ShutdownEMS_
0000:3e34+     MM_MapEMS_
0000:3f30*     MM_MapXEMS_
0000:4050+     MML_CheckForXMS_
0000:40ac*     MML_SetupXMS_
0000:4194+     MML_ShutdownXMS_
0000:4222+     MML_UseSpace_
0000:4400+     MML_ClearBlock_
0000:4484*     MM_Startup_
0000:48b6+     MM_Shutdown_
0000:494c      MM_GetPtr_
0000:4d46+     MM_FreePtr_
0000:4e3e*     MM_SetPurge_
0000:4f18*     MM_SetLock_
0000:4ff0+     MM_SortMem_
0000:51de*     MM_ShowMemory_
0000:587e*     MM_DumpData_
0000:59d8+     MM_UnusedMemory_
0000:5a5c+     MM_TotalFree_
0000:5af2*     MM_Report_
0000:64aa*     MM_BombOnError_
Module: wcpu.o(/dos/z/16/src/lib/wcpu/wcpu.c)
0000:64e0      detectcpu_
Module: 16_head.o(/dos/z/16/src/lib/16_head.c)
0000:654e*     wait_
0000:659a*     filesize_
0000:6600      printmeminfoline_
0000:67ec      US_CheckParm_
Module: 16_ca.o(/dos/z/16/src/lib/16_ca.c)
132d:0960*     _finishcachebox
132d:0964*     _drawcachebox
132d:0968*     _updatecachebox
0000:697e      CA_OpenDebug_
0000:69ce      CA_CloseDebug_
0000:69fc+     CA_FarRead_
0000:6a7c*     CA_FarWrite_
0000:6afc*     CA_ReadFile_
0000:6b78*     CA_LoadFile_
0000:6c20*     CAL_OptimizeNodes_
0000:6cd0*     CA_Startup_
0000:6d20*     CA_Shutdown_
Module: kitten.o(/dos/z/16/src/lib/nyan/kitten.c)
0000:6d8c      KITTENGETS
0000:6dec*     kittenopen_
0000:703a+     catread_
0000:70ee*     kittenclose_
0000:710a+     mystrtoul_
0000:71be+     processEscChars_
0000:7344+     get_line_
0000:73b6+     db_fetch_
0000:744c+     db_insert_
132d:04a4+     __kitten_catalog
Module: 16_hc.o(/dos/z/16/src/lib/16_hc.c)
0000:770c+     LargestFreeBlock_
0000:779a+     _coreleft_
0000:7816+     LargestFarFreeBlock_
0000:78cc+     _farcoreleft_
0000:797a+     LargestHugeFreeBlock_
0000:7a6a*     _hugecoreleft_
0000:7b3a+     GetFreeSize_
0000:7b94+     GetFarFreeSize_
0000:7bde+     GetNearFreeSize_
0000:7c2c*     heapdump_
0000:88ce+     heapstat_
0000:8a0c+     heapstat0_
0000:8a6e+     HC_OpenDebug_
0000:8abe*     HC_CloseDebug_
Module: timer.o(/dos/z/16/src/lib/timer.c)
0000:8af0*     start_timer_
0000:8bf0*     elapsed_timer_
0000:8c42*     ticktock_
0000:8cae*     time_in_seconds_
Module: /dos/fdos/watcom2/lib286/dos/clibh.lib(stk086.asm)
08d0:0005      __STK
08d0:0025      __STKOVERFLOW_
Module: /dos/fdos/watcom2/lib286/dos/clibh.lib(iob.c)
132d:04c6      ___iob
132d:097c      ___ClosedStreams
132d:0980      ___OpenStreams
Module: /dos/fdos/watcom2/lib286/dos/clibh.lib(fprintf.c)
08d0:0042      fprintf_
Module: /dos/fdos/watcom2/lib286/dos/clibh.lib(cstart)
132d:0000*     __nullarea
132d:062e*     __ovlflag
132d:062f*     __intno
132d:0630*     __ovlvec
08d0:0072      _cstart_
08d0:0145*     _Not_Enough_Memory_
08d0:0277      __exit_
08d0:0296      __do_exit_with_msg__
08d0:02f3      __GETDS
Module: /dos/fdos/watcom2/lib286/dos/clibh.lib(cmodel.asm)
08d0:02fe      _big_code_
08d0:02fe*     CodeModelMismatch
Module: /dos/fdos/watcom2/lib286/dos/clibh.lib(argcv.c)
132d:0984      __argv
132d:0988      ___argv
132d:098c      __argc
132d:098e      ___argc
Module: /dos/fdos/watcom2/lib286/dos/clibh.lib(pia.asm)
08d0:0305      __PIA
08d0:02fe*     __PIS
Module: /dos/fdos/watcom2/lib286/dos/clibh.lib(strncmp.c)
08d0:031c      strncmp_
Module: /dos/fdos/watcom2/lib286/dos/clibh.lib(fmalloc.c)
08d0:0359      _fmalloc_
08d0:0359      malloc_
132d:0634      ___fheap
132d:0636      ___fheapRover
132d:0638      ___LargestSizeB4Rover
Module: gfx.lib(/dos/z/16/src/lib/bitmap.c)
08d0:7ec2      bitmapLoadPcx_
08d0:801e*     bitmapLoadPcxTiles_
Module: /dos/fdos/watcom2/lib286/dos/clibh.lib(strstr.c)
08d0:04ce      strstr_
Module: /dos/fdos/watcom2/lib286/dos/clibh.lib(atoi.c)
08d0:05d0      atoi_
Module: /dos/fdos/watcom2/lib286/dos/clibh.lib(fopen.c)
08d0:066b+     __open_flags_
08d0:092c+     _fsopen_
08d0:0993      fopen_
08d0:0ab6*     freopen_
Module: /dos/fdos/watcom2/lib286/dos/clibh.lib(fread.c)
08d0:0b40      fread_
Module: /dos/fdos/watcom2/lib286/dos/clibh.lib(errno.c)
08d0:0eb7      __get_errno_ptr_
132d:0a14      _errno
Module: /dos/fdos/watcom2/lib286/dos/clibh.lib(frealloc.c)
08d0:0ebe*     _frealloc_
08d0:0ebe      realloc_
Module: /dos/fdos/watcom2/lib286/dos/clibh.lib(ptc.asm)
08d0:0f9a      __PTC
Module: /dos/fdos/watcom2/lib286/dos/clibh.lib(strncpy.c)
08d0:0fcd      strncpy_
Module: /dos/fdos/watcom2/lib286/dos/clibh.lib(printf.c)
08d0:1009      printf_
Module: /dos/fdos/watcom2/lib286/dos/clibh.lib(intx086.c)
08d0:1038+     int86x_
08d0:11bb      int86_
Module: /dos/fdos/watcom2/lib286/dos/clibh.lib(i4m.asm)
08d0:11e8      __I4M
08d0:11e8      __U4M
Module: /dos/fdos/watcom2/lib286/dos/clibh.lib(d_getvec.c)
08d0:1200      _dos_getvect_
Module: /dos/fdos/watcom2/lib286/dos/clibh.lib(d_setvec.c)
08d0:120b      _dos_setvect_
Module: /dos/fdos/watcom2/lib286/dos/clibh.lib(i4d.asm)
08d0:1218      __I4D
08d0:1267      __U4D
Module: /dos/fdos/watcom2/lib286/dos/clibh.lib(heapgrow.c)
08d0:12eb*     _heapgrow_
08d0:12eb      _fheapgrow_
08d0:12ec      _nheapgrow_
Module: /dos/fdos/watcom2/lib286/dos/clibh.lib(memavl.c)
08d0:1364      _memavl_
Module: /dos/fdos/watcom2/lib286/dos/clibh.lib(nmalloc.c)
08d0:13a9      _nmalloc_
132d:0644      ___nheapbeg
132d:0646      ___MiniHeapRover
132d:0648      ___LargestSizeB4MiniHeapRover
Module: /dos/fdos/watcom2/lib286/dos/clibh.lib(ffree.c)
08d0:1483      _ffree_
08d0:1483      free_
Module: /dos/fdos/watcom2/lib286/dos/clibh.lib(nfree.c)
08d0:14f0      _nfree_
132d:0a16+     ___MiniHeapFreeRover
Module: /dos/fdos/watcom2/lib286/dos/clibh.lib(exit.c)
08d0:15eb+     _null_exit_rtn_
08d0:15eb+     __null_int23_exit_
08d0:15ec      exit_
08d0:160d+     _exit_
132d:064a+     ___int23_exit
132d:064e      ___FPE_handler_exit
Module: /dos/fdos/watcom2/lib286/dos/clibh.lib(ltoa.c)
08d0:1629      ultoa_
08d0:16e7*     ltoa_
Module: /dos/fdos/watcom2/lib286/dos/clibh.lib(write.c)
08d0:186d      write_
Module: /dos/fdos/watcom2/lib286/dos/clibh.lib(fclose.c)
08d0:1a99      __doclose_
08d0:1be3      __shutdown_stream_
08d0:1bfd      fclose_
132d:0a18+     ___RmTmpFileFn
Module: /dos/fdos/watcom2/lib286/dos/clibh.lib(clockdos.c)
08d0:1c68+     __ibm_bios_get_ticks_
08d0:1cdf      clock_
Module: /dos/fdos/watcom2/lib286/dos/clibh.lib(kbhit.c)
08d0:1d06      kbhit_
Module: /dos/fdos/watcom2/lib286/dos/clibh.lib(ftell.c)
08d0:1d1d      ftell_
Module: /dos/fdos/watcom2/lib286/dos/clibh.lib(fseek.c)
08d0:1f03      fseek_
Module: /dos/fdos/watcom2/lib286/dos/clibh.lib(istable.c)
132d:0098      __IsTable
Module: /dos/fdos/watcom2/lib286/dos/clibh.lib(tolower.c)
08d0:20fb      tolower_
Module: /dos/fdos/watcom2/lib286/dos/clibh.lib(unlnk.c)
08d0:2109      unlink_
Module: /dos/fdos/watcom2/lib286/dos/clibh.lib(open.c)
08d0:2339      open_
08d0:2370      sopen_
Module: /dos/fdos/watcom2/lib286/dos/clibh.lib(close.c)
08d0:239d      close_
Module: /dos/fdos/watcom2/lib286/dos/clibh.lib(filelen.c)
08d0:23a2      filelength_
Module: /dos/fdos/watcom2/lib286/dos/clibh.lib(sprintf.c)
08d0:2400      sprintf_
Module: /dos/fdos/watcom2/lib286/dos/clibh.lib(getenv.c)
08d0:242f      getenv_
Module: /dos/fdos/watcom2/lib286/dos/clibh.lib(pts.asm)
08d0:251a      __PTS
Module: /dos/fdos/watcom2/lib286/dos/clibh.lib(read.c)
08d0:254b      read_
Module: /dos/fdos/watcom2/lib286/dos/clibh.lib(strdup.c)
08d0:2684*     __clib_strdup_
08d0:2684      strdup_
Module: /dos/fdos/watcom2/lib286/dos/clibh.lib(haloc.c)
08d0:26eb      halloc_
08d0:27d0      hfree_
Module: /dos/fdos/watcom2/lib286/dos/clibh.lib(fheapwal.c)
08d0:27d7      _heapwalk_
08d0:27d7      _fheapwalk_
Module: /dos/fdos/watcom2/lib286/dos/clibh.lib(nheapwal.c)
08d0:27ec+     __NHeapWalk_
08d0:28e5      _nheapwalk_
Module: /dos/fdos/watcom2/lib286/dos/clibh.lib(stack086.c)
08d0:28f5      stackavail_
Module: /dos/fdos/watcom2/lib286/dos/clibh.lib(_8087086.asm)
132d:065a      __8087
132d:065b      __real87
132d:065c      __dos87emucall
132d:065e      __dos87real
Module: /dos/fdos/watcom2/lib286/dos/clibh.lib(xmsg.c)
08d0:2904*     __exit_with_msg_
08d0:2909      __fatal_runtime_error_
Module: /dos/fdos/watcom2/lib286/dos/clibh.lib(crwdata)
132d:0660      __curbrk
132d:0668      __STACKLOW
132d:066a      __STACKTOP
132d:066c      __cbyte
132d:066e      __child
132d:0670      __no87
132d:067d      ___FPE_handler
132d:0662      __psp
132d:0671      __get_ovl_stack
132d:0675      __restore_ovl_stack
132d:0679      __close_ovl_file
132d:0681      __LpCmdLine
132d:0685      __LpPgmName
132d:0664      __osmajor
132d:0665      __osminor
132d:0666      __osmode
132d:0667      __HShift
Module: /dos/fdos/watcom2/lib286/dos/clibh.lib(initfile.c)
08d0:2928      __InitFiles_
Module: /dos/fdos/watcom2/lib286/dos/clibh.lib(ioexit.c)
08d0:2b5c*     fcloseall_
08d0:2b63      __full_io_exit_
Module: /dos/fdos/watcom2/lib286/dos/clibh.lib(fprtf.c)
08d0:2b87      __fprtf_
Module: /dos/fdos/watcom2/lib286/dos/clibh.lib(cmain086.c)
08d0:2cda      __CMain
Module: /dos/fdos/watcom2/lib286/dos/clibh.lib(initrtns.c)
08d0:2d40      __InitRtns
08d0:2d40*     __FInitRtns
08d0:2d9b      __FiniRtns
08d0:2d9b*     __FFiniRtns
Module: /dos/fdos/watcom2/lib286/dos/clibh.lib(uselfn.c)
132d:068a      ___uselfn
Module: /dos/fdos/watcom2/lib286/dos/clibh.lib(dosseg)
08d0:2e00      __DOSseg__
Module: /dos/fdos/watcom2/lib286/dos/clibh.lib(initargv.c)
08d0:2e01      __Init_Argv_
08d0:2e64+     _getargv_
08d0:3194      __Fini_Argv_
Module: /dos/fdos/watcom2/lib286/dos/clibh.lib(mem.c)
08d0:31c0      __MemAllocator
08d0:328a      __MemFree
Module: /dos/fdos/watcom2/lib286/dos/clibh.lib(growseg.c)
08d0:33e7      __GrowSeg_
Module: /dos/fdos/watcom2/lib286/dos/clibh.lib(allocseg.c)
08d0:355d      __AllocSeg_
Module: /dos/fdos/watcom2/lib286/dos/clibh.lib(fmemneed.c)
08d0:364c      __fmemneed_
Module: /dos/fdos/watcom2/lib286/dos/clibh.lib(fgetc.c)
08d0:364f      __fill_buffer_
08d0:389e      fgetc_
Module: gfx.lib(/dos/z/16/src/lib/modex16.c)
08d0:8348*     VGAmodeX_
08d0:83f0+     modexEnter_
08d0:848c*     modexLeave_
08d0:84a4*     modexDefaultPage_
08d0:84fe*     modexNextPage_
08d0:85ba*     modexNextPageFlexibleSize_
08d0:865e*     modexShowPage_
08d0:875a*     modexPanPage_
08d0:87aa*     modexSelectPlane_
08d0:87ce+     modexClearRegion_
08d0:88e6*     oldDrawBmp_
08d0:8a4c*     CDrawBmp_
08d0:8bb0*     modexDrawBmp_
08d0:8c16+     modexDrawBmpRegion_
08d0:8d80*     modexDrawPlanarBuf_
08d0:8d9e*     modexDrawSprite_
08d0:8e04+     modexDrawSpriteRegion_
08d0:8f7c*     modexCopyPageRegion_
08d0:90e6*     modexFadeOn_
08d0:9116*     modexFadeOff_
08d0:9144*     modexFlashOn_
08d0:9172*     modexFlashOff_
08d0:9242+     modexPalSave_
08d0:9298      modexNewPal_
08d0:92e8*     modexLoadPalFile_
08d0:93ca*     modexSavePalFile_
08d0:9442*     modexPalBlack_
08d0:946c*     modexPalWhite_
08d0:9496+     modexPalUpdate_
08d0:9a06+     modexPalUpdate1_
08d0:9a80*     modexPalUpdate0_
08d0:9acc+     chkcolor_
08d0:9de4+     modexputPixel_
08d0:9e72*     modexgetPixel_
08d0:9ef8*     modexhlin_
08d0:9f64*     modexprint_
08d0:a0fe*     modexprintbig_
08d0:a27a*     cls_
08d0:a2e8+     modexWaitBorder_
132d:0694+     _VGA
Module: /dos/fdos/watcom2/lib286/dos/clibh.lib(comtflag.c)
08d0:39e5*     __set_commode_
132d:06bc      __commode
Module: /dos/fdos/watcom2/lib286/dos/clibh.lib(textmode.c)
132d:06be      __fmode
Module: /dos/fdos/watcom2/lib286/dos/clibh.lib(chktty.c)
08d0:39f1      __chktty_
Module: /dos/fdos/watcom2/lib286/dos/clibh.lib(freefp.c)
08d0:3a50      __freefp_
08d0:3af1      __purgefp_
Module: /dos/fdos/watcom2/lib286/dos/clibh.lib(allocfp.c)
08d0:3b32      __allocfp_
Module: /dos/fdos/watcom2/lib286/dos/clibh.lib(ioalloc.c)
08d0:3ce2      __ioalloc_
Module: /dos/fdos/watcom2/lib286/dos/clibh.lib(qread.c)
08d0:3e70      __qread_
Module: /dos/fdos/watcom2/lib286/dos/clibh.lib(fmsize.c)
08d0:3e90*     _msize_
08d0:3eab      _fmsize_
Module: /dos/fdos/watcom2/lib286/dos/clibh.lib(nexpand.c)
08d0:3ebc      __HeapManager_expand_
08d0:43c5      _nexpand_
Module: /dos/fdos/watcom2/lib286/dos/clibh.lib(fexpand.c)
08d0:4418      _fexpand_
08d0:4418*     _expand_
Module: /dos/fdos/watcom2/lib286/dos/clibh.lib(intr.c)
08d0:444d      intr_
Module: /dos/fdos/watcom2/lib286/dos/clibh.lib(segread.c)
08d0:4461      segread_
Module: /dos/fdos/watcom2/lib286/dos/clibh.lib(grownear.c)
08d0:454c      __LastFree_
08d0:45c6      __ExpandDGROUP_
Module: /dos/fdos/watcom2/lib286/dos/clibh.lib(nmemneed.c)
08d0:46d7      __nmemneed_
Module: /dos/fdos/watcom2/lib286/dos/clibh.lib(alphabet.c)
132d:0050      ___Alphabet
Module: /dos/fdos/watcom2/lib286/dos/clibh.lib(__lseek.c)
08d0:46da      __lseek_
Module: /dos/fdos/watcom2/lib286/dos/clibh.lib(dosret.c)
08d0:4714*     __dosretax
08d0:4719*     __dosret0
08d0:4720      __set_errno_dos_
08d0:4788*     __set_errno_dos_reterr_
Module: /dos/fdos/watcom2/lib286/dos/clibh.lib(iomode.c)
08d0:4793      __GetIOMode_
08d0:47c8      __SetIOMode_nogrow_
132d:06d4      ___NFiles
132d:06d6      ___init_mode
132d:06fe      ___io_mode
Module: /dos/fdos/watcom2/lib286/dos/clibh.lib(_clse.c)
08d0:47fd      __close_
Module: /dos/fdos/watcom2/lib286/dos/clibh.lib(flush.c)
08d0:4833      __flush_
Module: /dos/fdos/watcom2/lib286/dos/clibh.lib(fflush.c)
08d0:4a7c      fflush_
Module: /dos/fdos/watcom2/lib286/dos/clibh.lib(tell.c)
08d0:4a91      tell_
Module: /dos/fdos/watcom2/lib286/dos/clibh.lib(lseek.c)
08d0:4aa2      lseek_
Module: /dos/fdos/watcom2/lib286/dos/clibh.lib(error086.asm)
08d0:4ad4      __doserror_
08d0:4ae2      __doserror1_
Module: /dos/fdos/watcom2/lib286/dos/clibh.lib(opendos.c)
08d0:4aee      _dos_open_
Module: /dos/fdos/watcom2/lib286/dos/clibh.lib(isatt.c)
08d0:4b14      isatty_
Module: /dos/fdos/watcom2/lib286/dos/clibh.lib(doserrno.c)
08d0:4b30*     __get_doserrno_ptr_
132d:1328      __doserrno
Module: /dos/fdos/watcom2/lib286/dos/clibh.lib(umaskval.c)
132d:0702      ___umaskval
Module: /dos/fdos/watcom2/lib286/dos/clibh.lib(creatdos.c)
08d0:4b37      _dos_creat_
08d0:4b5b*     _dos_creatnew_
Module: /dos/fdos/watcom2/lib286/dos/clibh.lib(stiomode.c)
08d0:4b7c+     __grow_iomode_
08d0:4c63+     __shrink_iomode_
08d0:4ca4      __SetIOMode_
Module: /dos/fdos/watcom2/lib286/dos/clibh.lib(vsprintf.c)
08d0:4d64      vsprintf_
Module: /dos/fdos/watcom2/lib286/dos/clibh.lib(environ.c)
132d:132c      ___env_mask
132d:1330      _environ
132d:1334*     __wenviron
Module: /dos/fdos/watcom2/lib286/dos/clibh.lib(mbterm.c)
08d0:4da6      _mbterm_
Module: /dos/fdos/watcom2/lib286/dos/clibh.lib(mbsnextc.c)
08d0:4df9      _mbsnextc_
Module: /dos/fdos/watcom2/lib286/dos/clibh.lib(mbcupper.c)
08d0:4e54      _mbctoupper_
Module: /dos/fdos/watcom2/lib286/dos/clibh.lib(mbsinc.c)
08d0:4e77      _mbsinc_
Module: /dos/fdos/watcom2/lib286/dos/clibh.lib(iomodtty.c)
08d0:4ec9      __ChkTTYIOMode_
08d0:4f37*     __IOMode_
Module: /dos/fdos/watcom2/lib286/dos/clibh.lib(heapwalk.c)
08d0:5009      __HeapWalk_
Module: /dos/fdos/watcom2/lib286/dos/clibh.lib(chk8087.c)
08d0:5249*     _fpreset_
08d0:5274      __init_8087_
08d0:52a7+     __default_sigfpe_handler_
08d0:52fc      __chk8087_
Module: /dos/fdos/watcom2/lib286/dos/clibh.lib(enterdb.c)
08d0:536c      __EnterWVIDEO_
132d:0722+     ___WD_Present
Module: /dos/fdos/watcom2/lib286/dos/clibh.lib(fputc.c)
08d0:5390      fputc_
Module: /dos/fdos/watcom2/lib286/dos/clibh.lib(prtf.c)
08d0:5565      __prtf_
Module: /dos/fdos/watcom2/lib286/dos/clibh.lib(___argc.c)
132d:1338      ____Argv
132d:133c      ____Argc
Module: /dos/fdos/watcom2/lib286/dos/clibh.lib(amblksiz.c)
132d:0724      __amblksiz
Module: /dos/fdos/watcom2/lib286/dos/clibh.lib(sgdef086)
132d:075a      __Start_XI
132d:0790      __End_XI
132d:0790      __Start_YI
132d:07a8      __End_YI
Module: /dos/fdos/watcom2/lib286/dos/clibh.lib(histsplt.c)
132d:133e      ___historical_splitparms
Module: /dos/fdos/watcom2/lib286/dos/clibh.lib(heapen.c)
08d0:66c8*     _heapenable_
132d:0726      ___heap_enabled
Module: /dos/fdos/watcom2/lib286/dos/clibh.lib(flushall.c)
08d0:66d9      __flushall_
08d0:676d      flushall_
Module: /dos/fdos/watcom2/lib286/dos/clibh.lib(gtche.c)
08d0:6773      getche_
Module: /dos/fdos/watcom2/lib286/dos/clibh.lib(fwrite.c)
08d0:678d      fwrite_
Module: /dos/fdos/watcom2/lib286/dos/clibh.lib(rand.c)
08d0:6b06      rand_
08d0:6b48*     srand_
Module: gfx.lib(/dos/z/16/src/lib/16text.c)
08d0:a386*     textInit_
132d:1340      _romFonts
Module: /dos/fdos/watcom2/lib286/dos/clibh.lib(bfree.c)
08d0:6b6b      _bfree_
Module: /dos/fdos/watcom2/lib286/dos/clibh.lib(bexpand.c)
08d0:6b90      _bexpand_
Module: /dos/fdos/watcom2/lib286/dos/clibh.lib(dointr)
08d0:6bea      _DoINTR_
Module: /dos/fdos/watcom2/lib286/dos/clibh.lib(sbrk.c)
08d0:6f63*     sbrk_
08d0:6f73      __brk_
Module: /dos/fdos/watcom2/lib286/dos/clibh.lib(qwrit.c)
08d0:6fdb      __qwrite_
Module: /dos/fdos/watcom2/lib286/dos/clibh.lib(fsync.c)
08d0:703b      fsync_
Module: /dos/fdos/watcom2/lib286/dos/clibh.lib(setenvp.c)
08d0:705e      __setenvp_
08d0:71ea      __freeenvp_
Module: /dos/fdos/watcom2/lib286/dos/clibh.lib(mbisdbcs.c)
132d:072c      ___IsDBCS
Module: /dos/fdos/watcom2/lib286/dos/clibh.lib(mbislead.c)
08d0:7248*     _ismbblead_
132d:135c      ___MBCSIsTable
Module: /dos/fdos/watcom2/lib286/dos/clibh.lib(mbinit.c)
08d0:72a2      __mbinit_
132d:072e      ___MBCodePage
Module: /dos/fdos/watcom2/lib286/dos/clibh.lib(mbdtoupp.c)
08d0:737d      _mbdtoupper_
Module: /dos/fdos/watcom2/lib286/dos/clibh.lib(toupper.c)
08d0:738b      toupper_
Module: /dos/fdos/watcom2/lib286/dos/clibh.lib(8087cw.c)
132d:0730      __8087cw
Module: /dos/fdos/watcom2/lib286/dos/clibh.lib(save8087.c)
132d:0732      ___Save8087
132d:0736      ___Rest8087
Module: /dos/fdos/watcom2/lib286/dos/clibh.lib(grabfp87.c)
08d0:739a      __GrabFP87_
Module: /dos/fdos/watcom2/lib286/dos/clibh.lib(ini87086.asm)
08d0:73cc*     __init_8087_emu
08d0:73d2      __x87id
Module: /dos/fdos/watcom2/lib286/dos/clibh.lib(wctomb.c)
08d0:742f      wctomb_
Module: /dos/fdos/watcom2/lib286/dos/clibh.lib(itoa.c)
08d0:747a+     utoa_
08d0:751b      itoa_
Module: /dos/fdos/watcom2/lib286/dos/clibh.lib(strupr.c)
08d0:7565      strupr_
Module: /dos/fdos/watcom2/lib286/dos/clibh.lib(noefgfmt.c)
132d:073a      ___EFG_printf
132d:073e*     ___EFG_scanf
Module: /dos/fdos/watcom2/lib286/dos/clibh.lib(lltoa.c)
08d0:75ad      ulltoa_
08d0:76ea*     lltoa_
Module: /dos/fdos/watcom2/lib286/dos/clibh.lib(filedos.c)
08d0:775b*     _dos_close_
08d0:7769      _dos_commit_
Module: /dos/fdos/watcom2/lib286/dos/clibh.lib(clearenv.c)
08d0:7778      clearenv_
Module: /dos/fdos/watcom2/lib286/dos/clibh.lib(fpe87.asm)
08d0:78ae      __Init_FPE_handler_
08d0:78e7      __Fini_FPE_handler_
08d0:791e*     __FPEHandler
Module: /dos/fdos/watcom2/lib286/dos/clibh.lib(fpeint.c)
132d:0758      ___FPE_int


                        +--------------------+
                        |   Libraries Used   |
                        +--------------------+

gfx.lib
/dos/fdos/watcom2/lib286/dos/clibh.lib


                        +-----------------------+
                        |   Linker Statistics   |
                        +-----------------------+

Stack size:  dac0 (56000.)
Memory size:  00022400 (140288.)
Entry point address: 08d0:0072
Link time: 00:00.00
