Open Watcom Linker Version 2.0 beta Sep 16 2015 10:14:10 (64-bit)
Copyright (c) 2002-2015 The Open Watcom Contributors. All Rights Reserved.
Portions Copyright (c) 1985-2002 Sybase, Inc. All Rights Reserved.
Created on:       15/10/22 16:17:36
Executable Image: pcxtest2.exe
creating a DOS executable


                        +------------+
                        |   Groups   |
                        +------------+

Group                           Address              Size
=====                           =======              ====

DGROUP                          0b88:0000            0000ed60



                        +--------------+
                        |   Segments   |
                        +--------------+

Segment                Class          Group          Address         Size
=======                =====          =====          =======         ====

pcxtest2_TEXT          CODE           AUTO           0000:0000       0000036f
_TEXT                  CODE           AUTO           0000:0370       0000856b
bitmap_TEXT            CODE           AUTO           0000:88e0       00000651
planar_TEXT            CODE           AUTO           0000:8f40       00000275
modex16_TEXT           CODE           AUTO           0000:91c0       000025b0
16text_TEXT            CODE           AUTO           0000:b770       0000010d
FAR_DATA               FAR_DATA       AUTO           0b87:000d       00000000
_NULL                  BEGDATA        DGROUP         0b88:0000       00000020
_AFTERNULL             BEGDATA        DGROUP         0b8a:0000       00000002
CONST                  DATA           DGROUP         0b8a:0002       00000076
CONST2                 DATA           DGROUP         0b91:0008       00000132
_DATA                  DATA           DGROUP         0ba5:0000       0000032a
XIB                    DATA           DGROUP         0bd7:000a       00000000
XI                     DATA           DGROUP         0bd7:000a       0000002a
XIE                    DATA           DGROUP         0bda:0004       00000000
YIB                    DATA           DGROUP         0bda:0004       00000000
YI                     DATA           DGROUP         0bda:0004       0000000c
YIE                    DATA           DGROUP         0bdb:0000       00000000
STRINGS                DATA           DGROUP         0bdb:0000       00000000
DATA                   DATA           DGROUP         0bdb:0000       00000000
_emu_init_start        EMU            DGROUP         0bdb:0000       00000000
_emu_init_end          EMU            DGROUP         0bdb:0000       00000000
_BSS                   BSS            DGROUP         0bdb:0000       00000d70
STACK                  STACK          DGROUP         0cb2:0000       0000dac0


                        +----------------+
                        |   Memory Map   |
                        +----------------+

* = unreferenced symbol
+ = symbol only referenced locally

Address        Symbol
=======        ======

Module: pcxtest2.o(/dos/z/16/src/pcxtest2.c)
0000:0100      main_
0b88:0530+     _gvar
Module: /dos/fdos/watcom2/lib286/dos/clibh.lib(stk086.asm)
0000:0375      __STK
0000:0395*     __STKOVERFLOW_
Module: gfx.lib(/dos/z/16/src/lib/bitmap.c)
0000:8c6a      bitmapLoadPcx_
0000:8dc6*     bitmapLoadPcxTiles_
Module: gfx.lib(/dos/z/16/src/lib/planar.c)
0000:8f40      planar_buf_from_bitmap_
0000:9060+     planar_buf_alloc_
0000:915a*     planar_buf_free_
Module: gfx.lib(/dos/z/16/src/lib/modex16.c)
0000:9400      VGAmodeX_
0000:9492+     vgaGetMode_
0000:94d2+     modexEnter_
0000:9752*     modexLeave_
0000:976a+     modexsetBaseXMode_
0000:97a8      modexDefaultPage_
0000:9888*     modexNextPage_
0000:9954*     modexNextPageFlexibleSize_
0000:9a22      modexShowPage_
0000:9b1e*     modexPanPage_
0000:9b6e*     modexSelectPlane_
0000:9b92      modexClearRegion_
0000:9caa      oldDrawBmp_
0000:9e10*     CDrawBmp_
0000:9f74      modexDrawBmp_
0000:9fda+     modexDrawBmpRegion_
0000:a144*     modexDrawPlanarBuf_
0000:a162      modexDrawSprite_
0000:a1c8+     modexDrawSpriteRegion_
0000:a340      modexCopyPageRegion_
0000:a4aa*     modexFadeOn_
0000:a4da*     modexFadeOff_
0000:a508*     modexFlashOn_
0000:a536*     modexFlashOff_
0000:a606+     modexPalSave_
0000:a65c      modexNewPal_
0000:a6ac*     modexLoadPalFile_
0000:a78e*     modexSavePalFile_
0000:a806*     modexPalBlack_
0000:a830*     modexPalWhite_
0000:a85a+     modexPalUpdate_
0000:adca      modexPalUpdate1_
0000:ae44*     modexPalUpdate0_
0000:ae90*     modexPalOverscan_
0000:aeb4+     chkcolor_
0000:b1cc+     modexputPixel_
0000:b25a*     modexgetPixel_
0000:b2e0*     modexhlin_
0000:b364*     modexprint_
0000:b4fe*     modexprintbig_
0000:b67a*     pdump_
0000:b6da*     cls_
0000:b748+     modexWaitBorder_
0b88:0204      _VGA
Module: /dos/fdos/watcom2/lib286/dos/clibh.lib(pia.asm)
0000:03b9      __PIA
0000:03b2*     __PIS
Module: /dos/fdos/watcom2/lib286/dos/clibh.lib(kbhit.c)
0000:03d0      kbhit_
Module: /dos/fdos/watcom2/lib286/dos/clibh.lib(printf.c)
0000:03e7      printf_
Module: /dos/fdos/watcom2/lib286/dos/clibh.lib(cstart)
0b88:0000*     __nullarea
0b88:0218*     __ovlflag
0b88:0219*     __intno
0b88:021a*     __ovlvec
0000:0416      _cstart_
0000:04e9*     _Not_Enough_Memory_
0000:061b      __exit_
0000:063a      __do_exit_with_msg__
0000:0697      __GETDS
Module: /dos/fdos/watcom2/lib286/dos/clibh.lib(fltused.c)
0b88:021e      _fltused_
Module: /dos/fdos/watcom2/lib286/dos/clibh.lib(cmodel.asm)
0000:06a2      _big_code_
0000:06a2*     CodeModelMismatch
Module: /dos/fdos/watcom2/lib286/dos/clibh.lib(_8087086.asm)
0b88:0220      __8087
0b88:0221      __real87
0b88:0222      __dos87emucall
0b88:0224      __dos87real
Module: /dos/fdos/watcom2/lib286/dos/clibh.lib(xmsg.c)
0000:06a2*     __exit_with_msg_
0000:06a7      __fatal_runtime_error_
Module: /dos/fdos/watcom2/lib286/dos/clibh.lib(crwdata)
0b88:0226      __curbrk
0b88:022e      __STACKLOW
0b88:0230      __STACKTOP
0b88:0232      __cbyte
0b88:0234      __child
0b88:0236      __no87
0b88:0243      ___FPE_handler
0b88:0228      __psp
0b88:0237      __get_ovl_stack
0b88:023b      __restore_ovl_stack
0b88:023f      __close_ovl_file
0b88:0247      __LpCmdLine
0b88:024b      __LpPgmName
0b88:022a      __osmajor
0b88:022b      __osminor
0b88:022c      __osmode
0b88:022d      __HShift
Module: /dos/fdos/watcom2/lib286/dos/clibh.lib(fread.c)
0000:06c6      fread_
Module: /dos/fdos/watcom2/lib286/dos/clibh.lib(fclose.c)
0000:0a3d      __doclose_
0000:0b87      __shutdown_stream_
0000:0ba1      fclose_
0b88:0f68+     ___RmTmpFileFn
Module: /dos/fdos/watcom2/lib286/dos/clibh.lib(exit.c)
0000:0c0c+     _null_exit_rtn_
0000:0c0c+     __null_int23_exit_
0000:0c0d      exit_
0000:0c2e+     _exit_
0b88:0250+     ___int23_exit
0b88:0254      ___FPE_handler_exit
Module: /dos/fdos/watcom2/lib286/dos/clibh.lib(fseek.c)
0000:0d68      fseek_
Module: /dos/fdos/watcom2/lib286/dos/clibh.lib(fgetc.c)
0000:0f60      __fill_buffer_
0000:11af      fgetc_
Module: /dos/fdos/watcom2/lib286/dos/clibh.lib(fopen.c)
0000:12f6+     __open_flags_
0000:15b7+     _fsopen_
0000:161e      fopen_
0000:1741*     freopen_
Module: /dos/fdos/watcom2/lib286/dos/clibh.lib(fmalloc.c)
0000:17cb      _fmalloc_
0000:17cb      malloc_
0b88:0258+     ___fheap
0b88:025a      ___fheapRover
0b88:025c      ___LargestSizeB4Rover
Module: /dos/fdos/watcom2/lib286/dos/clibh.lib(iob.c)
0b88:025e      ___iob
0b88:0f6c      ___ClosedStreams
0b88:0f70      ___OpenStreams
Module: /dos/fdos/watcom2/lib286/dos/clibh.lib(fprintf.c)
0000:1940      fprintf_
Module: /dos/fdos/watcom2/lib286/dos/clibh.lib(ffree.c)
0000:196f      _ffree_
0000:196f      free_
Module: /dos/fdos/watcom2/lib286/dos/clibh.lib(intx086.c)
0000:19dc+     int86x_
0000:1b5f      int86_
Module: /dos/fdos/watcom2/lib286/dos/clibh.lib(fwrite.c)
0000:1b8c      fwrite_
Module: /dos/fdos/watcom2/lib286/dos/clibh.lib(rand.c)
0000:1f05      rand_
0000:1f47*     srand_
Module: /dos/fdos/watcom2/lib286/dos/clibh.lib(i4m.asm)
0000:1f6a      __I4M
0000:1f6a      __U4M
Module: gfx.lib(/dos/z/16/src/lib/16text.c)
0000:b7e6*     textInit_
0b88:0f74      _romFonts
Module: /dos/fdos/watcom2/lib286/dos/clibh.lib(fprtf.c)
0000:1f9c      __fprtf_
Module: /dos/fdos/watcom2/lib286/dos/clibh.lib(cmain086.c)
0000:20ef      __CMain
Module: /dos/fdos/watcom2/lib286/dos/clibh.lib(initrtns.c)
0000:2155      __InitRtns
0000:2155*     __FInitRtns
0000:21b0      __FiniRtns
0000:21b0*     __FFiniRtns
Module: /dos/fdos/watcom2/lib286/dos/clibh.lib(uselfn.c)
0b88:03ca      ___uselfn
Module: /dos/fdos/watcom2/lib286/dos/clibh.lib(dosseg)
0000:2214      __DOSseg__
Module: /dos/fdos/watcom2/lib286/dos/clibh.lib(setefg.c)
0000:2215      __setEFGfmt_
Module: /dos/fdos/watcom2/lib286/dos/clibh.lib(chk8087.c)
0000:224d*     _fpreset_
0000:2278      __init_8087_
0000:22ab+     __default_sigfpe_handler_
0000:2300      __chk8087_
Module: /dos/fdos/watcom2/lib286/dos/clibh.lib(enterdb.c)
0000:2370      __EnterWVIDEO_
0b88:03ea+     ___WD_Present
Module: /dos/fdos/watcom2/lib286/dos/clibh.lib(errno.c)
0000:2394*     __get_errno_ptr_
0b88:0f8c      _errno
Module: /dos/fdos/watcom2/lib286/dos/clibh.lib(ioalloc.c)
0000:239b      __ioalloc_
Module: /dos/fdos/watcom2/lib286/dos/clibh.lib(qread.c)
0000:2529      __qread_
Module: /dos/fdos/watcom2/lib286/dos/clibh.lib(__lseek.c)
0000:2549      __lseek_
Module: /dos/fdos/watcom2/lib286/dos/clibh.lib(_clse.c)
0000:2583      __close_
Module: /dos/fdos/watcom2/lib286/dos/clibh.lib(flush.c)
0000:25b9      __flush_
Module: /dos/fdos/watcom2/lib286/dos/clibh.lib(freefp.c)
0000:2802      __freefp_
0000:28a3      __purgefp_
Module: /dos/fdos/watcom2/lib286/dos/clibh.lib(ptc.asm)
0000:28e4      __PTC
Module: /dos/fdos/watcom2/lib286/dos/clibh.lib(pts.asm)
0000:2918      __PTS
Module: /dos/fdos/watcom2/lib286/dos/clibh.lib(lseek.c)
0000:2949      lseek_
Module: /dos/fdos/watcom2/lib286/dos/clibh.lib(tell.c)
0000:297a      tell_
Module: /dos/fdos/watcom2/lib286/dos/clibh.lib(flushall.c)
0000:298b      __flushall_
0000:2a1f*     flushall_
Module: /dos/fdos/watcom2/lib286/dos/clibh.lib(gtche.c)
0000:2a25      getche_
Module: /dos/fdos/watcom2/lib286/dos/clibh.lib(comtflag.c)
0000:2a3f*     __set_commode_
0b88:03ec      __commode
Module: /dos/fdos/watcom2/lib286/dos/clibh.lib(textmode.c)
0b88:03ee      __fmode
Module: /dos/fdos/watcom2/lib286/dos/clibh.lib(tolower.c)
0000:2a4b      tolower_
Module: /dos/fdos/watcom2/lib286/dos/clibh.lib(open.c)
0000:2c7a*     open_
0000:2cb1      sopen_
Module: /dos/fdos/watcom2/lib286/dos/clibh.lib(chktty.c)
0000:2cde      __chktty_
Module: /dos/fdos/watcom2/lib286/dos/clibh.lib(allocfp.c)
0000:2d3d      __allocfp_
Module: /dos/fdos/watcom2/lib286/dos/clibh.lib(mem.c)
0000:2ef0      __MemAllocator
0000:2fba      __MemFree
Module: /dos/fdos/watcom2/lib286/dos/clibh.lib(growseg.c)
0000:3117      __GrowSeg_
Module: /dos/fdos/watcom2/lib286/dos/clibh.lib(allocseg.c)
0000:328d      __AllocSeg_
Module: /dos/fdos/watcom2/lib286/dos/clibh.lib(fmemneed.c)
0000:337c      __fmemneed_
Module: /dos/fdos/watcom2/lib286/dos/clibh.lib(nmalloc.c)
0000:337f      _nmalloc_
0b88:03f0      ___nheapbeg
0b88:03f2      ___MiniHeapRover
0b88:03f4      ___LargestSizeB4MiniHeapRover
Module: /dos/fdos/watcom2/lib286/dos/clibh.lib(heapgrow.c)
0000:3459*     _heapgrow_
0000:3459*     _fheapgrow_
0000:345a      _nheapgrow_
Module: /dos/fdos/watcom2/lib286/dos/clibh.lib(initfile.c)
0000:34d2      __InitFiles_
Module: /dos/fdos/watcom2/lib286/dos/clibh.lib(ioexit.c)
0000:3706*     fcloseall_
0000:370d      __full_io_exit_
Module: /dos/fdos/watcom2/lib286/dos/clibh.lib(nfree.c)
0000:3717      _nfree_
0b88:0f8e+     ___MiniHeapFreeRover
Module: /dos/fdos/watcom2/lib286/dos/clibh.lib(intr.c)
0000:3812      intr_
Module: /dos/fdos/watcom2/lib286/dos/clibh.lib(segread.c)
0000:3826      segread_
Module: /dos/fdos/watcom2/lib286/dos/clibh.lib(qwrit.c)
0000:388c      __qwrite_
Module: /dos/fdos/watcom2/lib286/dos/clibh.lib(fputc.c)
0000:38ec      fputc_
Module: /dos/fdos/watcom2/lib286/dos/clibh.lib(prtf.c)
0000:3ac1      __prtf_
Module: /dos/fdos/watcom2/lib286/dos/clibh.lib(___argc.c)
0b88:0f90      ____Argv
0b88:0f94      ____Argc
Module: /dos/fdos/watcom2/lib286/dos/clibh.lib(amblksiz.c)
0b88:03f6      __amblksiz
Module: /dos/fdos/watcom2/lib286/dos/clibh.lib(sgdef086)
0b88:04fa      __Start_XI
0b88:0524      __End_XI
0b88:0524      __Start_YI
0b88:0530      __End_YI
Module: /dos/fdos/watcom2/lib286/dos/clibh.lib(noefgfmt.c)
0b88:03f8      ___EFG_printf
0b88:03fc      ___EFG_scanf
Module: /dos/fdos/watcom2/lib286/math87h.lib(efgfmt.c)
0000:4c37      _EFG_Format_
Module: /dos/fdos/watcom2/lib286/math87h.lib(cnvs2d.c)
0000:4e09      __cnvs2d_
Module: /dos/fdos/watcom2/lib286/dos/clibh.lib(8087cw.c)
0b88:0400      __8087cw
Module: /dos/fdos/watcom2/lib286/dos/clibh.lib(save8087.c)
0b88:0402      ___Save8087
0b88:0406      ___Rest8087
Module: /dos/fdos/watcom2/lib286/dos/clibh.lib(grabfp87.c)
0000:4e29      __GrabFP87_
Module: /dos/fdos/watcom2/lib286/dos/clibh.lib(ini87086.asm)
0000:4e5c*     __init_8087_emu
0000:4e62      __x87id
Module: /dos/fdos/watcom2/lib286/dos/clibh.lib(dosret.c)
0000:4ebf*     __dosretax
0000:4ec4*     __dosret0
0000:4ecb      __set_errno_dos_
0000:4f33*     __set_errno_dos_reterr_
Module: /dos/fdos/watcom2/lib286/dos/clibh.lib(iomode.c)
0000:4f3e      __GetIOMode_
0000:4f73      __SetIOMode_nogrow_
0b88:041e      ___NFiles
0b88:0420      ___init_mode
0b88:0448      ___io_mode
Module: /dos/fdos/watcom2/lib286/dos/clibh.lib(fsync.c)
0000:4fa8      fsync_
Module: /dos/fdos/watcom2/lib286/dos/clibh.lib(stiomode.c)
0000:4fad+     __grow_iomode_
0000:5094+     __shrink_iomode_
0000:50d5      __SetIOMode_
Module: /dos/fdos/watcom2/lib286/dos/clibh.lib(opendos.c)
0000:517c      _dos_open_
Module: /dos/fdos/watcom2/lib286/dos/clibh.lib(isatt.c)
0000:51a2      isatty_
Module: /dos/fdos/watcom2/lib286/dos/clibh.lib(doserrno.c)
0000:51be*     __get_doserrno_ptr_
0b88:0f98      __doserrno
Module: /dos/fdos/watcom2/lib286/dos/clibh.lib(umaskval.c)
0b88:044c      ___umaskval
Module: /dos/fdos/watcom2/lib286/dos/clibh.lib(creatdos.c)
0000:51c5      _dos_creat_
0000:51e9*     _dos_creatnew_
Module: /dos/fdos/watcom2/lib286/dos/clibh.lib(heapen.c)
0000:520a*     _heapenable_
0b88:044e      ___heap_enabled
Module: /dos/fdos/watcom2/lib286/dos/clibh.lib(nmemneed.c)
0000:521b      __nmemneed_
Module: /dos/fdos/watcom2/lib286/dos/clibh.lib(grownear.c)
0000:52a3      __LastFree_
0000:531d      __ExpandDGROUP_
Module: /dos/fdos/watcom2/lib286/dos/clibh.lib(dointr)
0000:542e      _DoINTR_
Module: /dos/fdos/watcom2/lib286/dos/clibh.lib(wctomb.c)
0000:57a7      wctomb_
Module: /dos/fdos/watcom2/lib286/dos/clibh.lib(itoa.c)
0000:57f2+     utoa_
0000:5893      itoa_
Module: /dos/fdos/watcom2/lib286/dos/clibh.lib(strupr.c)
0000:58dd      strupr_
Module: /dos/fdos/watcom2/lib286/dos/clibh.lib(mbisdbcs.c)
0b88:0450      ___IsDBCS
Module: /dos/fdos/watcom2/lib286/dos/clibh.lib(mbislead.c)
0000:5912*     _ismbblead_
0b88:0f9a      ___MBCSIsTable
Module: /dos/fdos/watcom2/lib286/dos/clibh.lib(lltoa.c)
0000:592e      ulltoa_
0000:5a6b*     lltoa_
Module: /dos/fdos/watcom2/lib286/dos/clibh.lib(ltoa.c)
0000:5adc      ultoa_
0000:5b9a*     ltoa_
Module: /dos/fdos/watcom2/lib286/dos/clibh.lib(rtcntrl.c)
0000:5be8*     _SetLD64bit_
0000:5bf3*     _SetLD80bit_
0000:5bfe      _LDisDouble_
Module: /dos/fdos/watcom2/lib286/math87h.lib(ldcvt.c)
0000:5d63      _LDScale10x_
0000:663b      __LDcvt_
Module: /dos/fdos/watcom2/lib286/noemu87.lib(emustub.asm)
0000:0000*     FJSRQQ
0000:0000*     FISRQQ
0000:0000*     FIERQQ
0000:0000      FIDRQQ
0000:0000      FIWRQQ
0000:0000*     FJCRQQ
0000:0000*     FJARQQ
0000:0000*     FICRQQ
0000:0000*     FIARQQ
0000:6e18*     __init_87_emulator
Module: /dos/fdos/watcom2/lib286/math87h.lib(strtod.c)
0000:762c+     __Strtold_
0000:786b      strtod_
Module: /dos/fdos/watcom2/lib286/dos/clibh.lib(fpe87.asm)
0000:7a12      __Init_FPE_handler_
0000:7a4b      __Fini_FPE_handler_
0000:7a82*     __FPEHandler
Module: /dos/fdos/watcom2/lib286/dos/clibh.lib(filedos.c)
0000:7d14*     _dos_close_
0000:7d22      _dos_commit_
Module: /dos/fdos/watcom2/lib286/dos/clibh.lib(frealloc.c)
0000:7d31*     _frealloc_
0000:7d31      realloc_
Module: /dos/fdos/watcom2/lib286/dos/clibh.lib(iomodtty.c)
0000:7e0d      __ChkTTYIOMode_
0000:7e7b*     __IOMode_
Module: /dos/fdos/watcom2/lib286/dos/clibh.lib(error086.asm)
0000:7e8c      __doserror_
0000:7e9a*     __doserror1_
Module: /dos/fdos/watcom2/lib286/dos/clibh.lib(sbrk.c)
0000:7ea6*     sbrk_
0000:7eb6      __brk_
Module: /dos/fdos/watcom2/lib286/dos/clibh.lib(alphabet.c)
0b88:0072      ___Alphabet
Module: /dos/fdos/watcom2/lib286/dos/clibh.lib(mbinit.c)
0000:7f5c      __mbinit_
0b88:04f6+     ___MBCodePage
Module: /dos/fdos/watcom2/lib286/math87h.lib(ldclass.c)
0000:8037      __LDClass_
0000:80bd*     _FLClass_
Module: /dos/fdos/watcom2/lib286/dos/clibh.lib(i4d.asm)
0000:80d2      __I4D
0000:8121*     __U4D
Module: /dos/fdos/watcom2/lib286/dos/clibh.lib(istable.c)
0b88:0098      __IsTable
Module: /dos/fdos/watcom2/lib286/math87h.lib(bufld086.asm)
0000:81a6      __ZBuf2LD
Module: /dos/fdos/watcom2/lib286/dos/clibh.lib(seterrno.c)
0000:826e*     __set_EDOM_
0000:827a      __set_ERANGE_
0000:8286*     __set_EINVAL_
Module: /dos/fdos/watcom2/lib286/math87h.lib(inf_nan.c)
0b88:019a*     ___f_infinity
0b88:019e*     ___f_posqnan
0b88:01a2      ___d_infinity
0b88:01aa      ___d_posqnan
0b88:01b2*     ___ld_infinity
0b88:01ba*     ___ld_posqnan
Module: /dos/fdos/watcom2/lib286/dos/clibh.lib(hugeval.c)
0b88:01c2      __HugeValue
Module: /dos/fdos/watcom2/lib286/dos/clibh.lib(fpeint.c)
0b88:04f8      ___FPE_int
Module: /dos/fdos/watcom2/lib286/dos/clibh.lib(fmsize.c)
0000:82a0*     _msize_
0000:82bb      _fmsize_
Module: /dos/fdos/watcom2/lib286/dos/clibh.lib(nexpand.c)
0000:82cc      __HeapManager_expand_
0000:87d5      _nexpand_
Module: /dos/fdos/watcom2/lib286/dos/clibh.lib(fexpand.c)
0000:8828      _fexpand_
0000:8828*     _expand_
Module: /dos/fdos/watcom2/lib286/dos/clibh.lib(bfree.c)
0000:885d      _bfree_
Module: /dos/fdos/watcom2/lib286/dos/clibh.lib(bexpand.c)
0000:8882      _bexpand_


                        +--------------------+
                        |   Libraries Used   |
                        +--------------------+

gfx.lib
/dos/fdos/watcom2/lib286/noemu87.lib
/dos/fdos/watcom2/lib286/math87h.lib
/dos/fdos/watcom2/lib286/dos/clibh.lib


                        +-----------------------+
                        |   Linker Statistics   |
                        +-----------------------+

Stack size:  dac0 (56000.)
Memory size:  0001a5e0 (108000.)
Entry point address: 0000:0416
Link time: 00:00.86
