Open Watcom Linker Version 2.0 beta Sep 14 2015 12:40:28 (32-bit)
Copyright (c) 2002-2015 The Open Watcom Contributors. All Rights Reserved.
Portions Copyright (c) 1985-2002 Sybase, Inc. All Rights Reserved.
Created on:       15/09/14 13:37:00
Executable Image: scroll.exe
creating a DOS executable


                        +------------+
                        |   Groups   |
                        +------------+

Group                           Address              Size
=====                           =======              ====

DGROUP                          0c92:0000            00009b40



                        +--------------+
                        |   Segments   |
                        +--------------+

Segment                Class          Group          Address         Size
=======                =====          =====          =======         ====

BEGTEXT                CODE           AUTO           0000:0000       00000007
_TEXT                  CODE           AUTO           0000:0010       0000c75d
16_in13_DATA           FAR_DATA       AUTO           0c77:0000       000001a4
FAR_DATA               FAR_DATA       AUTO           0c91:0004       00000000
_NULL                  BEGDATA        DGROUP         0c92:0000       00000020
_AFTERNULL             BEGDATA        DGROUP         0c94:0000       00000002
CONST                  DATA           DGROUP         0c94:0002       00000076
CONST2                 DATA           DGROUP         0c9b:0008       00000132
_DATA                  DATA           DGROUP         0caf:0000       00000aca
XIB                    DATA           DGROUP         0d5b:000a       00000000
XI                     DATA           DGROUP         0d5b:000a       00000036
XIE                    DATA           DGROUP         0d5f:0000       00000000
YIB                    DATA           DGROUP         0d5f:0000       00000000
YI                     DATA           DGROUP         0d5f:0000       00000012
YIE                    DATA           DGROUP         0d60:0002       00000000
STRINGS                DATA           DGROUP         0d60:0002       00000000
DATA                   DATA           DGROUP         0d60:0002       00000000
_emu_init_start        EMU            DGROUP         0d60:0002       00000000
_emu_init_end          EMU            DGROUP         0d60:0002       00000000
_BSS                   BSS            DGROUP         0d61:0000       00000e4c
STACK                  STACK          DGROUP         0e46:0000       00008000


                        +----------------+
                        |   Memory Map   |
                        +----------------+

* = unreferenced symbol
+ = symbol only referenced locally

Address        Symbol
=======        ======

Module: scroll.o(/dos/z/16/src/scroll.c)
0000:01c0      main_
Module: mapread.o(/dos/z/16/src/lib/mapread.c)
0000:06fc+     jsoneq_
0000:075e+     dump_
0000:0b24*     loadmap_
Module: jsmn.o(/dos/z/16/src/lib/jsmn/jsmn.c)
0000:1000      jsmn_parse_
0000:12fa      jsmn_init_
Module: /dos/fdos/watcom2/lib286/dos/clibc.lib(stk086.asm)
0000:1323      __STK
0000:1343*     __STKOVERFLOW_
Module: /dos/fdos/watcom2/lib286/dos/clibc.lib(fmalloc.c)
0000:135e      _fmalloc_
0000:135e      malloc_
0c92:01e8+     ___fheap
0c92:01ea      ___fheapRover
0c92:01ec      ___LargestSizeB4Rover
Module: 16.lib(/dos/z/16/src/lib/timer.c)
0000:1470      start_timer_
0000:14ae      elapsed_timer_
0000:14f0*     time_in_seconds_
Module: 16.lib(/dos/z/16/src/lib/scroll16.c)
0000:153e      walk_
0000:1f14+     mapScrollRight_
0000:2036+     mapScrollLeft_
0000:2132+     mapScrollUp_
0000:2248+     mapScrollDown_
0000:2384      chkmap_
0000:241e      mapGoTo_
0000:24f0+     mapDrawTile_
0000:25c0+     mapDrawRow_
0000:266c+     mapDrawCol_
0000:2718+     mapDrawWRow_
0000:27a4*     mapDrawWCol_
0000:2832*     qclean_
0000:2850      shinku_
0000:28de+     animatePlayer_
Module: 16.lib(/dos/z/16/src/lib/bitmap.c)
0000:2be4      bitmapLoadPcx_
0000:2d08*     bitmapLoadPcxTiles_
Module: 16.lib(/dos/z/16/src/lib/planar.c)
0000:2e10      planar_buf_from_bitmap_
0000:2eba+     planar_buf_alloc_
0000:2f30*     planar_buf_free_
Module: 16.lib(/dos/z/16/src/lib/16_in.c)
0c92:0d9a+     _inpu
0000:3098+     INL_KeyService_
0000:31e8+     Mouse_
0000:3238+     IN_GetJoyAbs_
0000:34d0+     IN_GetJoyButtonsDB_
0000:3640+     IN_SetupJoy_
0000:3730      IN_Startup_
0000:37e6      IN_Default_
0000:387a      IN_Shutdown_
0000:38b8*     IN_SetKeyHook_
0000:38d2+     IN_ClearKeysDown_
0000:3942*     IN_ReadCursor_
0000:3a14      IN_ReadControl_
0000:3d18*     IN_SetControlType_
0000:3d32*     IN_GetScanName_
0000:3d92*     IN_WaitForKey_
0000:3db0*     IN_WaitForASCII_
0000:3dce+     IN_AckBack_
0000:3e60*     IN_Ack_
0000:3ec0+     IN_IsUserInput_
0000:3f1c*     IN_UserInput_
0000:3f6c      IN_KeyDown_
0000:3f8e+     IN_ClearKey_
0000:3fca*     IN_qb_
Module: 16.lib(/dos/z/16/src/lib/16text.c)
0000:4058      textInit_
0c92:0ef0      _romFonts
Module: 16.lib(/dos/z/16/src/lib/modex16.c)
0000:4268      VGAmodeX_
0000:4302+     modexEnter_
0000:439a      modexLeave_
0000:43ae      modexDefaultPage_
0000:4404      modexNextPage_
0000:446a      modexNextPage0_
0000:44c8      modexShowPage_
0000:455a*     modexPanPage_
0000:4576*     modexSelectPlane_
0000:4596      modexClearRegion_
0000:4684*     oldDrawBmp_
0000:477e*     modexDrawBmp_
0000:47a4      modexDrawBmpRegion_
0000:48a4*     modexDrawPlanarBuf_
0000:48be*     modexDrawSprite_
0000:48e4+     modexDrawSpriteRegion_
0000:49f0      modexCopyPageRegion_
0000:4b00*     modexFadeOn_
0000:4b2c*     modexFadeOff_
0000:4b56*     modexFlashOn_
0000:4b80*     modexFlashOff_
0000:4c28+     modexPalSave_
0000:4c5a      modexNewPal_
0000:4c9e*     modexLoadPalFile_
0000:4d40*     modexSavePalFile_
0000:4daa*     modexPalBlack_
0000:4dd0*     modexPalWhite_
0000:4df6+     modexPalUpdate_
0000:51a6+     modexPalUpdate1_
0000:51fe*     modexPalUpdate0_
0000:5240+     chkcolor_
0000:5426      modexputPixel_
0000:5490*     modexgetPixel_
0000:54e8*     modexhlin_
0000:554e      modexprint_
0000:5698*     modexprintbig_
0000:57dc      modexWaitBorder_
0c92:0994      _VGA
Module: /dos/fdos/watcom2/lib286/dos/clibc.lib(sprintf.c)
0000:5800      sprintf_
Module: /dos/fdos/watcom2/lib286/dos/clibc.lib(sound.c)
0000:582d      sound_
0000:5866      nosound_
Module: 16.lib(/dos/z/16/src/lib/bakapee.c)
0000:5888      pdump_
0000:58e2+     cls_
0000:591c+     colortest_
0000:594c+     colorz_
0000:598e+     ssd_
0000:5a12+     dingpp_
0000:5a3c+     dingo_
0000:5a8c+     dingas_
0000:5ae4+     dingu_
0000:5b1c+     dingq_
0000:5b84*     ding_
Module: /dos/fdos/watcom2/lib286/dos/clibc.lib(printf.c)
0000:5ef2      printf_
Module: 16.lib(/dos/z/16/src/lib/wcpu/wcpu.c)
0000:5f20      detectcpu_
Module: /dos/fdos/watcom2/lib286/dos/clibc.lib(cstart)
0000:0003*     ___begtext
0c92:0000*     __nullarea
0000:5f74      _cstart_
0000:6049*     _Not_Enough_Memory_
0000:6172      __exit_
0000:6191      __do_exit_with_msg__
0000:61d3      __GETDS
Module: /dos/fdos/watcom2/lib286/dos/clibc.lib(cmodel.asm)
0000:61de      _small_code_
0000:61de*     CodeModelMismatch
Module: /dos/fdos/watcom2/lib286/dos/clibc.lib(strncmp.c)
0000:61de      strncmp_
Module: /dos/fdos/watcom2/lib286/dos/clibc.lib(strstr.c)
0000:621b      strstr_
Module: /dos/fdos/watcom2/lib286/dos/clibc.lib(atoi.c)
0000:62d5      atoi_
Module: /dos/fdos/watcom2/lib286/dos/clibc.lib(fopen.c)
0000:633d+     __open_flags_
0000:6534+     _fsopen_
0000:6598      fopen_
0000:6673*     freopen_
Module: /dos/fdos/watcom2/lib286/dos/clibc.lib(fread.c)
0000:66e8      fread_
Module: /dos/fdos/watcom2/lib286/dos/clibc.lib(errno.c)
0000:68d2      __get_errno_ptr_
0c92:1808      _errno
Module: /dos/fdos/watcom2/lib286/dos/clibc.lib(iob.c)
0c92:09c4      ___iob
0c92:180a      ___ClosedStreams
0c92:180e      ___OpenStreams
Module: /dos/fdos/watcom2/lib286/dos/clibc.lib(fprintf.c)
0000:68d9      fprintf_
Module: /dos/fdos/watcom2/lib286/dos/clibc.lib(frealloc.c)
0000:6906*     _frealloc_
0000:6906      realloc_
Module: /dos/fdos/watcom2/lib286/dos/clibc.lib(strncpy.c)
0000:69cc      strncpy_
Module: /dos/fdos/watcom2/lib286/dos/clibc.lib(xmsg.c)
0000:6a08*     __exit_with_msg_
0000:6a0b      __fatal_runtime_error_
Module: /dos/fdos/watcom2/lib286/dos/clibc.lib(crwdata)
0c92:0b2c      __curbrk
0c92:0b34      __STACKLOW
0c92:0b36      __STACKTOP
0c92:0b38      __cbyte
0c92:0b3a      __child
0c92:0b3c      __no87
0c92:0b49      ___FPE_handler
0c92:0b2e      __psp
0c92:0b3d      __get_ovl_stack
0c92:0b41      __restore_ovl_stack
0c92:0b45      __close_ovl_file
0c92:0b4d      __LpCmdLine
0c92:0b51      __LpPgmName
0c92:0b30      __osmajor
0c92:0b31      __osminor
0c92:0b32      __osmode
0c92:0b33      __HShift
Module: /dos/fdos/watcom2/lib286/dos/clibc.lib(mem.c)
0000:6a30      __MemAllocator
0000:6afa      __MemFree
Module: /dos/fdos/watcom2/lib286/dos/clibc.lib(growseg.c)
0000:6c57      __GrowSeg_
Module: /dos/fdos/watcom2/lib286/dos/clibc.lib(allocseg.c)
0000:6d49      __AllocSeg_
Module: /dos/fdos/watcom2/lib286/dos/clibc.lib(fmemneed.c)
0000:6de0      __fmemneed_
Module: /dos/fdos/watcom2/lib286/dos/clibc.lib(nmalloc.c)
0000:6de3      _nmalloc_
0c92:0b56      ___nheapbeg
0c92:0b58      ___MiniHeapRover
0c92:0b5a      ___LargestSizeB4MiniHeapRover
Module: /dos/fdos/watcom2/lib286/dos/clibc.lib(heapgrow.c)
0000:6eb4*     _heapgrow_
0000:6eb4*     _fheapgrow_
0000:6eb5      _nheapgrow_
Module: /dos/fdos/watcom2/lib286/dos/clibc.lib(clockdos.c)
0000:6f29+     __ibm_bios_get_ticks_
0000:6f9b      clock_
Module: /dos/fdos/watcom2/lib286/dos/clibc.lib(i4d.asm)
0000:6fc2      __I4D
0000:700b      __U4D
Module: /dos/fdos/watcom2/lib286/dos/clibc.lib(_8087086.asm)
0c92:0b64      __8087
0c92:0b65      __real87
0c92:0b66      __dos87emucall
0c92:0b68      __dos87real
Module: /dos/fdos/watcom2/lib286/dos/clibc.lib(fltused.c)
0c92:0b6a      _fltused_
Module: /dos/fdos/watcom2/lib286/dos/clibc.lib(fclose.c)
0000:7090      __doclose_
0000:7139      __shutdown_stream_
0000:7150      fclose_
0c92:1816+     ___RmTmpFileFn
Module: /dos/fdos/watcom2/lib286/dos/clibc.lib(exit.c)
0000:719a+     _null_exit_rtn_
0000:719a+     __null_int23_exit_
0000:719b      exit_
0000:71b9+     _exit_
0c92:0b6c+     ___int23_exit
0c92:0b6e      ___FPE_handler_exit
Module: /dos/fdos/watcom2/lib286/dos/clibc.lib(fseek.c)
0000:723e      fseek_
Module: /dos/fdos/watcom2/lib286/dos/clibc.lib(fgetc.c)
0000:7396      __fill_buffer_
0000:7480      fgetc_
Module: /dos/fdos/watcom2/lib286/dos/clibc.lib(ffree.c)
0000:7522      _ffree_
0000:7522      free_
Module: /dos/fdos/watcom2/lib286/dos/clibc.lib(intx086.c)
0000:7564+     int86x_
0000:75fb      int86_
Module: /dos/fdos/watcom2/lib286/dos/clibc.lib(d_getvec.c)
0000:7625      _dos_getvect_
Module: /dos/fdos/watcom2/lib286/dos/clibc.lib(d_setvec.c)
0000:7630      _dos_setvect_
Module: /dos/fdos/watcom2/lib286/dos/clibc.lib(argcv.c)
0c92:1818      __argv
0c92:181c      ___argv
0c92:1820      __argc
0c92:1822      ___argc
Module: 16.lib(/dos/z/16/src/lib/16_head.c)
0000:764e*     wait_
0000:768e*     filesize_
0000:76e8*     printmeminfoline_
0000:78ca      US_CheckParm_
Module: /dos/fdos/watcom2/lib286/dos/clibc.lib(fwrite.c)
0000:799c      fwrite_
Module: /dos/fdos/watcom2/lib286/dos/clibc.lib(rand.c)
0000:7b91      rand_
0000:7bd1*     srand_
Module: /dos/fdos/watcom2/lib286/dos/clibc.lib(vsprintf.c)
0000:7c0d      vsprintf_
Module: /dos/fdos/watcom2/lib286/dos/clibc.lib(delay.c)
0000:7c32      delay_
Module: /dos/fdos/watcom2/lib286/dos/clibc.lib(fprtf.c)
0000:7d9e      __fprtf_
Module: /dos/fdos/watcom2/lib286/dos/clibc.lib(cmain086.c)
0000:7e5f      __CMain
Module: /dos/fdos/watcom2/lib286/dos/clibc.lib(initrtns.c)
0000:7ebb*     __FInitRtns
0000:7ebf      __InitRtns
0000:7f1a*     __FFiniRtns
0000:7f1e      __FiniRtns
Module: /dos/fdos/watcom2/lib286/dos/clibc.lib(uselfn.c)
0c92:0b78      ___uselfn
Module: /dos/fdos/watcom2/lib286/dos/clibc.lib(dosseg)
0000:7f82      __DOSseg__
Module: /dos/fdos/watcom2/lib286/dos/clibc.lib(istable.c)
0c92:0098      __IsTable
Module: /dos/fdos/watcom2/lib286/dos/clibc.lib(comtflag.c)
0000:7f83*     __set_commode_
0c92:0b7a      __commode
Module: /dos/fdos/watcom2/lib286/dos/clibc.lib(textmode.c)
0c92:0b7c      __fmode
Module: /dos/fdos/watcom2/lib286/dos/clibc.lib(tolower.c)
0000:7f8f      tolower_
Module: /dos/fdos/watcom2/lib286/dos/clibc.lib(open.c)
0000:819b*     open_
0000:81d1      sopen_
Module: /dos/fdos/watcom2/lib286/dos/clibc.lib(chktty.c)
0000:81fe      __chktty_
Module: /dos/fdos/watcom2/lib286/dos/clibc.lib(freefp.c)
0000:8227      __freefp_
0000:82a2      __purgefp_
Module: /dos/fdos/watcom2/lib286/dos/clibc.lib(allocfp.c)
0000:82e1      __allocfp_
Module: /dos/fdos/watcom2/lib286/dos/clibc.lib(qread.c)
0000:8402      __qread_
Module: /dos/fdos/watcom2/lib286/dos/clibc.lib(ioalloc.c)
0000:8420      __ioalloc_
Module: /dos/fdos/watcom2/lib286/dos/clibc.lib(initfile.c)
0000:84b6      __InitFiles_
Module: /dos/fdos/watcom2/lib286/dos/clibc.lib(ioexit.c)
0000:85fc*     fcloseall_
0000:8601      __full_io_exit_
Module: /dos/fdos/watcom2/lib286/dos/clibc.lib(fmsize.c)
0000:8609*     _msize_
0000:8609      _fmsize_
Module: /dos/fdos/watcom2/lib286/dos/clibc.lib(nexpand.c)
0000:861a      __HeapManager_expand_
0000:878d      _nexpand_
Module: /dos/fdos/watcom2/lib286/dos/clibc.lib(fexpand.c)
0000:87dd      _fexpand_
0000:87dd*     _expand_
Module: /dos/fdos/watcom2/lib286/dos/clibc.lib(enterdb.c)
0000:880e      __EnterWVIDEO_
0c92:0b7e+     ___WD_Present
Module: /dos/fdos/watcom2/lib286/dos/clibc.lib(heapen.c)
0000:8832*     _heapenable_
0c92:0b80      ___heap_enabled
Module: /dos/fdos/watcom2/lib286/dos/clibc.lib(amblksiz.c)
0c92:0b82      __amblksiz
Module: /dos/fdos/watcom2/lib286/dos/clibc.lib(nmemneed.c)
0000:8843      __nmemneed_
Module: /dos/fdos/watcom2/lib286/dos/clibc.lib(grownear.c)
0000:88cb      __LastFree_
0000:8944      __ExpandDGROUP_
Module: /dos/fdos/watcom2/lib286/dos/clibc.lib(nfree.c)
0000:8a51      _nfree_
0c92:1824+     ___MiniHeapFreeRover
Module: /dos/fdos/watcom2/lib286/dos/clibc.lib(i4m.asm)
0000:8b4a      __I4M
0000:8b4a      __U4M
Module: /dos/fdos/watcom2/lib286/dos/clibc.lib(chk8087.c)
0000:8b7c*     _fpreset_
0000:8ba7      __init_8087_
0000:8bce+     __default_sigfpe_handler_
0000:8c21      __chk8087_
Module: /dos/fdos/watcom2/lib286/dos/clibc.lib(setefg.c)
0000:8c8c      __setEFGfmt_
Module: /dos/fdos/watcom2/lib286/dos/clibc.lib(__lseek.c)
0000:8c9e      __lseek_
Module: /dos/fdos/watcom2/lib286/dos/clibc.lib(_clse.c)
0000:8cd6      __close_
Module: /dos/fdos/watcom2/lib286/dos/clibc.lib(flush.c)
0000:8d0a      __flush_
Module: /dos/fdos/watcom2/lib286/dos/clibc.lib(lseek.c)
0000:8e3a      lseek_
Module: /dos/fdos/watcom2/lib286/dos/clibc.lib(tell.c)
0000:8e65      tell_
Module: /dos/fdos/watcom2/lib286/dos/clibc.lib(flushall.c)
0000:8e74      __flushall_
0000:8ecf      flushall_
Module: /dos/fdos/watcom2/lib286/dos/clibc.lib(gtche.c)
0000:8ed4      getche_
Module: /dos/fdos/watcom2/lib286/dos/clibc.lib(intr.c)
0000:8eee      intr_
Module: /dos/fdos/watcom2/lib286/dos/clibc.lib(segread.c)
0000:8f00      segread_
Module: /dos/fdos/watcom2/lib286/dos/clibc.lib(initargv.c)
0000:8f20      __Init_Argv_
0000:8f7c+     _getargv_
0000:9175      __Fini_Argv_
Module: /dos/fdos/watcom2/lib286/dos/clibc.lib(kbhit.c)
0000:9197      kbhit_
Module: /dos/fdos/watcom2/lib286/dos/clibc.lib(ftell.c)
0000:91ae      ftell_
Module: /dos/fdos/watcom2/lib286/dos/clibc.lib(ltoa.c)
0000:9206      ultoa_
0000:9275*     ltoa_
Module: /dos/fdos/watcom2/lib286/dos/clibc.lib(qwrit.c)
0000:92a3      __qwrite_
Module: /dos/fdos/watcom2/lib286/dos/clibc.lib(fputc.c)
0000:92ff      fputc_
Module: /dos/fdos/watcom2/lib286/dos/clibc.lib(prtf.c)
0000:93cc      __prtf_
Module: /dos/fdos/watcom2/lib286/dos/clibc.lib(___argc.c)
0c92:182a      ____Argv
0c92:182e      ____Argc
Module: /dos/fdos/watcom2/lib286/dos/clibc.lib(sgdef086)
0c92:0c9a      __Start_XI
0c92:0cd0      __End_XI
0c92:0cd0      __Start_YI
0c92:0ce2      __End_YI
Module: /dos/fdos/watcom2/lib286/dos/clibc.lib(opendos.c)
0000:a186      _dos_open_
Module: /dos/fdos/watcom2/lib286/dos/clibc.lib(iomode.c)
0000:a1aa      __GetIOMode_
0000:a1cf      __SetIOMode_nogrow_
0c92:0ba2      ___NFiles
0c92:0ba4      ___init_mode
0c92:0bcc      ___io_mode
Module: /dos/fdos/watcom2/lib286/dos/clibc.lib(isatt.c)
0000:a1f2      isatty_
Module: /dos/fdos/watcom2/lib286/dos/clibc.lib(doserrno.c)
0000:a20e*     __get_doserrno_ptr_
0c92:1830      __doserrno
Module: /dos/fdos/watcom2/lib286/dos/clibc.lib(umaskval.c)
0c92:0bd0      ___umaskval
Module: /dos/fdos/watcom2/lib286/dos/clibc.lib(creatdos.c)
0000:a215      _dos_creat_
0000:a237*     _dos_creatnew_
Module: /dos/fdos/watcom2/lib286/dos/clibc.lib(stiomode.c)
0000:a256+     __grow_iomode_
0000:a316+     __shrink_iomode_
0000:a34f      __SetIOMode_
Module: /dos/fdos/watcom2/lib286/dos/clibc.lib(dosret.c)
0000:a3af*     __dosretax
0000:a3b4*     __dosret0
0000:a3bb      __set_errno_dos_
0000:a415*     __set_errno_dos_reterr_
Module: /dos/fdos/watcom2/lib286/dos/clibc.lib(bfree.c)
0000:a41f      _bfree_
Module: /dos/fdos/watcom2/lib286/dos/clibc.lib(bexpand.c)
0000:a440      _bexpand_
Module: /dos/fdos/watcom2/lib286/dos/clibc.lib(sbrk.c)
0000:a495*     sbrk_
0000:a4a4      __brk_
Module: /dos/fdos/watcom2/lib286/dos/clibc.lib(8087cw.c)
0c92:0be6      __8087cw
Module: /dos/fdos/watcom2/lib286/dos/clibc.lib(save8087.c)
0c92:0be8      ___Save8087
0c92:0bea      ___Rest8087
Module: /dos/fdos/watcom2/lib286/dos/clibc.lib(grabfp87.c)
0000:a50d      __GrabFP87_
Module: /dos/fdos/watcom2/lib286/dos/clibc.lib(ini87086.asm)
0000:a52a*     __init_8087_emu
0000:a52e      __x87id
Module: /dos/fdos/watcom2/lib286/dos/clibc.lib(noefgfmt.c)
0c92:0bec      ___EFG_printf
0c92:0bee      ___EFG_scanf
Module: /dos/fdos/watcom2/lib286/math87c.lib(efgfmt.c)
0000:a59c      _EFG_Format_
Module: /dos/fdos/watcom2/lib286/math87c.lib(cnvs2d.c)
0000:a728      __cnvs2d_
Module: /dos/fdos/watcom2/lib286/dos/clibc.lib(fsync.c)
0000:a73f      fsync_
Module: /dos/fdos/watcom2/lib286/dos/clibc.lib(dointr)
0000:a742      _DoINTR_
Module: /dos/fdos/watcom2/lib286/dos/clibc.lib(histsplt.c)
0c92:1834      ___historical_splitparms
Module: /dos/fdos/watcom2/lib286/dos/clibc.lib(fflush.c)
0000:aabb      fflush_
Module: /dos/fdos/watcom2/lib286/dos/clibc.lib(alphabet.c)
0c92:0072      ___Alphabet
Module: /dos/fdos/watcom2/lib286/dos/clibc.lib(wctomb.c)
0000:aacc      wctomb_
Module: /dos/fdos/watcom2/lib286/dos/clibc.lib(itoa.c)
0000:aaf5+     utoa_
0000:ab52      itoa_
Module: /dos/fdos/watcom2/lib286/dos/clibc.lib(strupr.c)
0000:ab75      strupr_
Module: /dos/fdos/watcom2/lib286/dos/clibc.lib(mbisdbcs.c)
0c92:0bf0      ___IsDBCS
Module: /dos/fdos/watcom2/lib286/dos/clibc.lib(mbislead.c)
0000:ab97*     _ismbblead_
0c92:1836      ___MBCSIsTable
Module: /dos/fdos/watcom2/lib286/dos/clibc.lib(lltoa.c)
0000:abb1      ulltoa_
0000:ac96*     lltoa_
Module: /dos/fdos/watcom2/lib286/dos/clibc.lib(error086.asm)
0000:acf8      __doserror_
0000:ad04*     __doserror1_
Module: /dos/fdos/watcom2/lib286/dos/clibc.lib(iomodtty.c)
0000:ad0e      __ChkTTYIOMode_
0000:ad4a*     __IOMode_
Module: /dos/fdos/watcom2/lib286/dos/clibc.lib(fpe87.asm)
0000:ad5c      __Init_FPE_handler_
0000:ad95      __Fini_FPE_handler_
0000:adcc*     __FPEHandler
Module: /dos/fdos/watcom2/lib286/dos/clibc.lib(rtcntrl.c)
0000:b05e*     _SetLD64bit_
0000:b069*     _SetLD80bit_
0000:b074      _LDisDouble_
Module: /dos/fdos/watcom2/lib286/math87c.lib(ldcvt.c)
0000:b1a0      _LDScale10x_
0000:b6fd      __LDcvt_
Module: /dos/fdos/watcom2/lib286/noemu87.lib(emustub.asm)
0000:0000*     FJSRQQ
0000:0000*     FISRQQ
0000:0000*     FIERQQ
0000:0000      FIDRQQ
0000:0000      FIWRQQ
0000:0000*     FJCRQQ
0000:0000*     FJARQQ
0000:0000*     FICRQQ
0000:0000*     FIARQQ
0000:bc2a*     __init_87_emulator
Module: /dos/fdos/watcom2/lib286/math87c.lib(strtod.c)
0000:c19f+     __Strtold_
0000:c34b      strtod_
Module: /dos/fdos/watcom2/lib286/dos/clibc.lib(filedos.c)
0000:c4e1*     _dos_close_
0000:c4ed      _dos_commit_
Module: /dos/fdos/watcom2/lib286/dos/clibc.lib(mbinit.c)
0000:c538      __mbinit_
0c92:0c96+     ___MBCodePage
Module: /dos/fdos/watcom2/lib286/dos/clibc.lib(fpeint.c)
0c92:0c98      ___FPE_int
Module: /dos/fdos/watcom2/lib286/math87c.lib(ldclass.c)
0000:c61e      __LDClass_
0000:c66c*     _FLClass_
Module: /dos/fdos/watcom2/lib286/math87c.lib(bufld086.asm)
0000:c67e      __ZBuf2LD
Module: /dos/fdos/watcom2/lib286/dos/clibc.lib(seterrno.c)
0000:c746*     __set_EDOM_
0000:c752      __set_ERANGE_
0000:c75e*     __set_EINVAL_
Module: /dos/fdos/watcom2/lib286/math87c.lib(inf_nan.c)
0c92:019a*     ___f_infinity
0c92:019e*     ___f_posqnan
0c92:01a2      ___d_infinity
0c92:01aa      ___d_posqnan
0c92:01b2*     ___ld_infinity
0c92:01ba*     ___ld_posqnan
Module: /dos/fdos/watcom2/lib286/dos/clibc.lib(hugeval.c)
0c92:01c2      __HugeValue


                        +--------------------+
                        |   Libraries Used   |
                        +--------------------+

16.lib
/dos/fdos/watcom2/lib286/noemu87.lib
/dos/fdos/watcom2/lib286/math87c.lib
/dos/fdos/watcom2/lib286/dos/clibc.lib


                        +-----------------------+
                        |   Linker Statistics   |
                        +-----------------------+

Stack size:  8000 (32768.)
Memory size:  00016460 (91232.)
Entry point address: 0000:5f74
Link time: 00:00.00
